target datalayout = "e-m:e-p270:32:32-p271:32:32-p272:64:64-i64:64-i128:128-f80:128-n8:16:32:64-S128"
target triple = "x86_64-pc-linux-gnu"

%"class.xgboost::JsonReader" = type { ptr, %"struct.xgboost::JsonReader::SourceLocation", %"struct.xgboost::StringView" }
%"struct.xgboost::JsonReader::SourceLocation" = type { i64 }
%"struct.xgboost::StringView" = type { ptr, i64 }

; Function Attrs: mustprogress nounwind uwtable
define linkonce_odr void @_ZN7xgboost10JsonReader14SourceLocation7ForwardEv(ptr noundef nonnull align 8 dereferenceable(8) %0) #5 comdat align 2 {
  %2 = alloca ptr, align 8
  store ptr %0, ptr %2, align 8, !tbaa !192
  %3 = load ptr, ptr %2, align 8
  %4 = getelementptr inbounds nuw %"struct.xgboost::JsonReader::SourceLocation", ptr %3, i32 0, i32 0
  %5 = load i64, ptr %4, align 8, !tbaa !194
  %6 = add i64 %5, 1
  store i64 %6, ptr %4, align 8, !tbaa !194
  ret void
}

; Function Attrs: mustprogress nounwind uwtable
define internal noundef zeroext i1 @_ZN7xgboost12_GLOBAL__N_17IsSpaceEa(i8 noundef signext %0) #5 {
  %2 = alloca i8, align 1
  store i8 %0, ptr %2, align 1, !tbaa !60
  %3 = load i8, ptr %2, align 1, !tbaa !60
  %4 = sext i8 %3 to i32
  %5 = icmp eq i32 %4, 32
  br i1 %5, label %18, label %6

6:                                                ; preds = %1
  %7 = load i8, ptr %2, align 1, !tbaa !60
  %8 = sext i8 %7 to i32
  %9 = icmp eq i32 %8, 10
  br i1 %9, label %18, label %10

10:                                               ; preds = %6
  %11 = load i8, ptr %2, align 1, !tbaa !60
  %12 = sext i8 %11 to i32
  %13 = icmp eq i32 %12, 13
  br i1 %13, label %18, label %14

14:                                               ; preds = %10
  %15 = load i8, ptr %2, align 1, !tbaa !60
  %16 = sext i8 %15 to i32
  %17 = icmp eq i32 %16, 9
  br label %18

18:                                               ; preds = %14, %10, %6, %1
  %19 = phi i1 [ true, %10 ], [ true, %6 ], [ true, %1 ], [ %17, %14 ]
  ret i1 %19
}

; Function Attrs: mustprogress nounwind uwtable
define linkonce_odr noundef nonnull align 1 dereferenceable(1) ptr @_ZNK7xgboost10StringViewixEm(ptr noundef nonnull align 8 dereferenceable(16) %0, i64 noundef %1) #5 comdat align 2 {
  %3 = alloca ptr, align 8
  %4 = alloca i64, align 8
  store ptr %0, ptr %3, align 8, !tbaa !183
  store i64 %1, ptr %4, align 8, !tbaa !22
  %5 = load ptr, ptr %3, align 8
  %6 = getelementptr inbounds nuw %"struct.xgboost::StringView", ptr %5, i32 0, i32 0
  %7 = load ptr, ptr %6, align 8, !tbaa !191
  %8 = load i64, ptr %4, align 8, !tbaa !22
  %9 = getelementptr inbounds nuw i8, ptr %7, i64 %8
  ret ptr %9
}

; Function Attrs: mustprogress nounwind uwtable
define linkonce_odr noundef i64 @_ZNK7xgboost10StringView4sizeEv(ptr noundef nonnull align 8 dereferenceable(16) %0) #5 comdat align 2 {
  %2 = alloca ptr, align 8
  store ptr %0, ptr %2, align 8, !tbaa !183
  %3 = load ptr, ptr %2, align 8
  %4 = getelementptr inbounds nuw %"struct.xgboost::StringView", ptr %3, i32 0, i32 1
  %5 = load i64, ptr %4, align 8, !tbaa !189
  ret i64 %5
}

; Function Attrs: mustprogress nounwind uwtable
define linkonce_odr noundef i64 @_ZNK7xgboost10JsonReader14SourceLocation3PosEv(ptr noundef nonnull align 8 dereferenceable(8) %0) #5 comdat align 2 {
  %2 = alloca ptr, align 8
  store ptr %0, ptr %2, align 8, !tbaa !192
  %3 = load ptr, ptr %2, align 8
  %4 = getelementptr inbounds nuw %"struct.xgboost::JsonReader::SourceLocation", ptr %3, i32 0, i32 0
  %5 = load i64, ptr %4, align 8, !tbaa !194
  ret i64 %5
}

; Function Attrs: mustprogress uwtable
define void @_ZN7xgboost10JsonReader10SkipSpacesEv(ptr noundef nonnull align 8 dereferenceable(32) %0) #4 align 2 {
  %2 = alloca ptr, align 8
  %3 = alloca i8, align 1
  %4 = alloca i32, align 4
  store ptr %0, ptr %2, align 8, !tbaa !179
  %5 = load ptr, ptr %2, align 8
  br label %6

6:                                                ; preds = %26, %1
  %7 = getelementptr inbounds nuw %"class.xgboost::JsonReader", ptr %5, i32 0, i32 1
  %8 = call noundef i64 @_ZNK7xgboost10JsonReader14SourceLocation3PosEv(ptr noundef nonnull align 8 dereferenceable(8) %7)
  %9 = getelementptr inbounds nuw %"class.xgboost::JsonReader", ptr %5, i32 0, i32 2
  %10 = call noundef i64 @_ZNK7xgboost10StringView4sizeEv(ptr noundef nonnull align 8 dereferenceable(16) %9)
  %11 = icmp ult i64 %8, %10
  br i1 %11, label %12, label %27

12:                                               ; preds = %6
  call void @llvm.lifetime.start.p0(i64 1, ptr %3) #3
  %13 = getelementptr inbounds nuw %"class.xgboost::JsonReader", ptr %5, i32 0, i32 2
  %14 = getelementptr inbounds nuw %"class.xgboost::JsonReader", ptr %5, i32 0, i32 1
  %15 = call noundef i64 @_ZNK7xgboost10JsonReader14SourceLocation3PosEv(ptr noundef nonnull align 8 dereferenceable(8) %14)
  %16 = call noundef nonnull align 1 dereferenceable(1) ptr @_ZNK7xgboost10StringViewixEm(ptr noundef nonnull align 8 dereferenceable(16) %13, i64 noundef %15)
  %17 = load i8, ptr %16, align 1, !tbaa !60
  store i8 %17, ptr %3, align 1, !tbaa !60
  %18 = load i8, ptr %3, align 1, !tbaa !60
  %19 = call noundef zeroext i1 @_ZN7xgboost12_GLOBAL__N_17IsSpaceEa(i8 noundef signext %18)
  br i1 %19, label %20, label %22

20:                                               ; preds = %12
  %21 = getelementptr inbounds nuw %"class.xgboost::JsonReader", ptr %5, i32 0, i32 1
  call void @_ZN7xgboost10JsonReader14SourceLocation7ForwardEv(ptr noundef nonnull align 8 dereferenceable(8) %21)
  br label %23

22:                                               ; preds = %12
  store i32 3, ptr %4, align 4
  br label %24

23:                                               ; preds = %20
  store i32 0, ptr %4, align 4
  br label %24

24:                                               ; preds = %23, %22
  call void @llvm.lifetime.end.p0(i64 1, ptr %3) #3
  %25 = load i32, ptr %4, align 4
  switch i32 %25, label %28 [
    i32 0, label %26
    i32 3, label %27
  ]

26:                                               ; preds = %24
  br label %6, !llvm.loop !182

27:                                               ; preds = %24, %6
  ret void

28:                                               ; preds = %24
  unreachable
}