; Function Attrs: mustprogress nofree norecurse nosync nounwind memory(read, argmem: readwrite, inaccessiblemem: none) uwtable
define void @_ZN7xgboost10JsonReader10SkipSpacesEv(ptr noundef nonnull align 8 captures(none) dereferenceable(32) %0) local_unnamed_addr #14 align 2 {
  %2 = getelementptr inbounds nuw i8, ptr %0, i64 8
  %3 = getelementptr inbounds nuw i8, ptr %0, i64 24
  %4 = load i64, ptr %3, align 8, !tbaa !337
  %.promoted = load i64, ptr %2, align 8, !tbaa !339
  %5 = icmp ult i64 %.promoted, %4
  br i1 %5, label %.lr.ph, label %_ZN7xgboost12_GLOBAL__N_17IsSpaceEa.exit.thread2

.lr.ph:                                           ; preds = %1
  %6 = getelementptr inbounds nuw i8, ptr %0, i64 16
  %7 = load ptr, ptr %6, align 8, !tbaa !341
  br label %8

8:                                                ; preds = %.lr.ph, %_ZN7xgboost12_GLOBAL__N_17IsSpaceEa.exit
  %9 = phi i64 [ %.promoted, %.lr.ph ], [ %12, %_ZN7xgboost12_GLOBAL__N_17IsSpaceEa.exit ]
  %10 = getelementptr inbounds nuw i8, ptr %7, i64 %9
  %11 = load i8, ptr %10, align 1, !tbaa !34
  switch i8 %11, label %_ZN7xgboost12_GLOBAL__N_17IsSpaceEa.exit.thread2 [
    i8 32, label %_ZN7xgboost12_GLOBAL__N_17IsSpaceEa.exit
    i8 13, label %_ZN7xgboost12_GLOBAL__N_17IsSpaceEa.exit
    i8 10, label %_ZN7xgboost12_GLOBAL__N_17IsSpaceEa.exit
    i8 9, label %_ZN7xgboost12_GLOBAL__N_17IsSpaceEa.exit
  ]

_ZN7xgboost12_GLOBAL__N_17IsSpaceEa.exit:         ; preds = %8, %8, %8, %8
  %12 = add i64 %9, 1
  store i64 %12, ptr %2, align 8, !tbaa !339
  %exitcond.not = icmp eq i64 %12, %4
  br i1 %exitcond.not, label %_ZN7xgboost12_GLOBAL__N_17IsSpaceEa.exit.thread2, label %8

_ZN7xgboost12_GLOBAL__N_17IsSpaceEa.exit.thread2: ; preds = %_ZN7xgboost12_GLOBAL__N_17IsSpaceEa.exit, %8, %1
  ret void
}